target datalayout = "e-m:e-p270:32:32-p271:32:32-p272:64:64-i64:64-i128:128-f80:128-n8:16:32:64-S128"
target triple = "x86_64-pc-linux-gnu"

%struct.exr_attr_box2i_t = type { %struct.exr_attr_v2i_t, %struct.exr_attr_v2i_t }
%struct.exr_attr_v2i_t = type { i32, i32 }
%struct._priv_exr_part_t = type { i32, i32, %struct.exr_attribute_list, ptr, ptr, ptr, ptr, ptr, ptr, ptr, ptr, ptr, ptr, ptr, ptr, ptr, ptr, %struct.exr_attr_box2i_t, %struct.exr_attr_box2i_t, i32, i32, i32, float, i32, i32, ptr, ptr, ptr, ptr, i64, i16, i16, i32, i64, i64 }
%struct.exr_attribute_list = type { i32, i32, ptr, ptr }
%struct._priv_exr_context_t = type { i8, i8, i8, i8, i8, i8, i8, i8, %struct.exr_attr_string_t, %struct.exr_attr_string_t, ptr, ptr, ptr, ptr, ptr, ptr, ptr, ptr, i32, i32, i32, i32, i32, float, ptr, ptr, ptr, i64, ptr, ptr, i64, i32, i32, i32, i32, %struct._priv_exr_part_t, ptr, ptr, %struct.exr_attribute_list, %union.pthread_mutex_t, i8, i8, [2 x i8], i32 }
%struct.exr_attr_string_t = type { i32, i32, ptr }
%union.pthread_mutex_t = type { %struct.__pthread_mutex_s }
%struct.__pthread_mutex_s = type { i32, i32, i32, i32, i32, i16, i16, %struct.__pthread_internal_list }
%struct.__pthread_internal_list = type { ptr, ptr }
%struct._internal_exr_seq_scratch = type { ptr, i64, i64, i64, ptr, ptr, ptr }

@.str.88 = private unnamed_addr constant [28 x i8] c"Unable to read '%s' %s data\00", align 1

; Function Attrs: nounwind uwtable
define internal i32 @extract_attr_string(ptr noundef %0, ptr noundef %1, ptr noundef %2, ptr noundef %3, ptr noundef %4, i32 noundef %5, ptr noundef %6) #0 {
  %8 = alloca i32, align 4
  %9 = alloca ptr, align 8
  %10 = alloca ptr, align 8
  %11 = alloca ptr, align 8
  %12 = alloca ptr, align 8
  %13 = alloca ptr, align 8
  %14 = alloca i32, align 4
  %15 = alloca ptr, align 8
  %16 = alloca i32, align 4
  %17 = alloca i32, align 4
  store ptr %0, ptr %9, align 8, !tbaa !3
  store ptr %1, ptr %10, align 8, !tbaa !95
  store ptr %2, ptr %11, align 8, !tbaa !34
  store ptr %3, ptr %12, align 8, !tbaa !93
  store ptr %4, ptr %13, align 8, !tbaa !93
  store i32 %5, ptr %14, align 4, !tbaa !10
  store ptr %6, ptr %15, align 8, !tbaa !93
  call void @llvm.lifetime.start.p0(i64 4, ptr %16) #7
  %18 = load ptr, ptr %10, align 8, !tbaa !95
  %19 = getelementptr inbounds nuw %struct._internal_exr_seq_scratch, ptr %18, i32 0, i32 4
  %20 = load ptr, ptr %19, align 8, !tbaa !88
  %21 = load ptr, ptr %10, align 8, !tbaa !95
  %22 = load ptr, ptr %15, align 8, !tbaa !93
  %23 = load i32, ptr %14, align 4, !tbaa !10
  %24 = sext i32 %23 to i64
  %25 = call i32 %20(ptr noundef %21, ptr noundef %22, i64 noundef %24)
  store i32 %25, ptr %16, align 4, !tbaa !10
  %26 = load i32, ptr %16, align 4, !tbaa !10
  %27 = icmp ne i32 %26, 0
  br i1 %27, label %28, label %37

28:                                               ; preds = %7
  %29 = load ptr, ptr %9, align 8, !tbaa !3
  %30 = getelementptr inbounds nuw %struct._priv_exr_context_t, ptr %29, i32 0, i32 14
  %31 = load ptr, ptr %30, align 8, !tbaa !48
  %32 = load ptr, ptr %9, align 8, !tbaa !3
  %33 = load i32, ptr %16, align 4, !tbaa !10
  %34 = load ptr, ptr %12, align 8, !tbaa !93
  %35 = load ptr, ptr %13, align 8, !tbaa !93
  %36 = call i32 (ptr, i32, ptr, ...) %31(ptr noundef %32, i32 noundef %33, ptr noundef @.str.88, ptr noundef %34, ptr noundef %35)
  store i32 %36, ptr %8, align 4
  store i32 1, ptr %17, align 4
  br label %47

37:                                               ; preds = %7
  %38 = load ptr, ptr %15, align 8, !tbaa !93
  %39 = load i32, ptr %14, align 4, !tbaa !10
  %40 = sext i32 %39 to i64
  %41 = getelementptr inbounds i8, ptr %38, i64 %40
  store i8 0, ptr %41, align 1, !tbaa !33
  %42 = load ptr, ptr %9, align 8, !tbaa !3
  %43 = load ptr, ptr %11, align 8, !tbaa !34
  %44 = load ptr, ptr %15, align 8, !tbaa !93
  %45 = load i32, ptr %14, align 4, !tbaa !10
  %46 = call i32 @exr_attr_string_init_static_with_length(ptr noundef %42, ptr noundef %43, ptr noundef %44, i32 noundef %45)
  store i32 %46, ptr %8, align 4
  store i32 1, ptr %17, align 4
  br label %47

47:                                               ; preds = %37, %28
  call void @llvm.lifetime.end.p0(i64 4, ptr %16) #7
  %48 = load i32, ptr %8, align 4
  ret i32 %48
}