; Function Attrs: nounwind uwtable
define internal fastcc i32 @extract_attr_string(ptr noundef %0, ptr noundef nonnull %1, ptr noundef %2, ptr noundef nonnull %3, ptr noundef nonnull %4, i32 noundef %5, ptr noundef %6) unnamed_addr #0 {
  %8 = getelementptr inbounds nuw i8, ptr %1, i64 32
  %9 = load ptr, ptr %8, align 8, !tbaa !73
  %10 = sext i32 %5 to i64
  %11 = tail call i32 %9(ptr noundef nonnull %1, ptr noundef %6, i64 noundef %10) #9
  %.not = icmp eq i32 %11, 0
  br i1 %.not, label %16, label %12

12:                                               ; preds = %7
  %13 = getelementptr inbounds nuw i8, ptr %0, i64 72
  %14 = load ptr, ptr %13, align 8, !tbaa !40
  %15 = tail call i32 (ptr, i32, ptr, ...) %14(ptr noundef %0, i32 noundef %11, ptr noundef nonnull @.str.88, ptr noundef nonnull %3, ptr noundef nonnull %4) #9
  br label %19

16:                                               ; preds = %7
  %17 = getelementptr inbounds i8, ptr %6, i64 %10
  store i8 0, ptr %17, align 1, !tbaa !29
  %18 = tail call i32 @exr_attr_string_init_static_with_length(ptr noundef %0, ptr noundef %2, ptr noundef %6, i32 noundef %5) #9
  br label %19

19:                                               ; preds = %16, %12
  %.0 = phi i32 [ %15, %12 ], [ %18, %16 ]
  ret i32 %.0
}